; Function Attrs: nounwind uwtable
define void @cl_hash_destroy(ptr noundef %0) local_unnamed_addr #1 {
  %.not = icmp eq ptr %0, null
  br i1 %.not, label %3, label %2

2:                                                ; preds = %1
  tail call void @EVP_MD_CTX_free(ptr noundef nonnull %0) #12
  br label %3

3:                                                ; preds = %1, %2
  ret void
}